target datalayout = "e-m:e-p270:32:32-p271:32:32-p272:64:64-i64:64-i128:128-f80:128-n8:16:32:64-S128"
target triple = "x86_64-pc-linux-gnu"

; Function Attrs: nounwind uwtable
define i32 @ossl_pem_check_suffix(ptr noundef %0, ptr noundef %1) #0 {
  %3 = alloca i32, align 4
  %4 = alloca ptr, align 8
  %5 = alloca ptr, align 8
  %6 = alloca i32, align 4
  %7 = alloca i32, align 4
  %8 = alloca ptr, align 8
  %9 = alloca i32, align 4
  store ptr %0, ptr %4, align 8, !tbaa !3
  store ptr %1, ptr %5, align 8, !tbaa !3
  call void @llvm.lifetime.start.p0(i64 4, ptr %6) #8
  %10 = load ptr, ptr %4, align 8, !tbaa !3
  %11 = call i64 @strlen(ptr noundef %10) #9
  %12 = trunc i64 %11 to i32
  store i32 %12, ptr %6, align 4, !tbaa !8
  call void @llvm.lifetime.start.p0(i64 4, ptr %7) #8
  %13 = load ptr, ptr %5, align 8, !tbaa !3
  %14 = call i64 @strlen(ptr noundef %13) #9
  %15 = trunc i64 %14 to i32
  store i32 %15, ptr %7, align 4, !tbaa !8
  call void @llvm.lifetime.start.p0(i64 8, ptr %8) #8
  %16 = load i32, ptr %7, align 4, !tbaa !8
  %17 = add nsw i32 %16, 1
  %18 = load i32, ptr %6, align 4, !tbaa !8
  %19 = icmp sge i32 %17, %18
  br i1 %19, label %20, label %21

20:                                               ; preds = %2
  store i32 0, ptr %3, align 4
  store i32 1, ptr %9, align 4
  br label %50

21:                                               ; preds = %2
  %22 = load ptr, ptr %4, align 8, !tbaa !3
  %23 = load i32, ptr %6, align 4, !tbaa !8
  %24 = sext i32 %23 to i64
  %25 = getelementptr inbounds i8, ptr %22, i64 %24
  %26 = load i32, ptr %7, align 4, !tbaa !8
  %27 = sext i32 %26 to i64
  %28 = sub i64 0, %27
  %29 = getelementptr inbounds i8, ptr %25, i64 %28
  store ptr %29, ptr %8, align 8, !tbaa !3
  %30 = load ptr, ptr %8, align 8, !tbaa !3
  %31 = load ptr, ptr %5, align 8, !tbaa !3
  %32 = call i32 @strcmp(ptr noundef %30, ptr noundef %31) #9
  %33 = icmp ne i32 %32, 0
  br i1 %33, label %34, label %35

34:                                               ; preds = %21
  store i32 0, ptr %3, align 4
  store i32 1, ptr %9, align 4
  br label %50

35:                                               ; preds = %21
  %36 = load ptr, ptr %8, align 8, !tbaa !3
  %37 = getelementptr inbounds i8, ptr %36, i32 -1
  store ptr %37, ptr %8, align 8, !tbaa !3
  %38 = load ptr, ptr %8, align 8, !tbaa !3
  %39 = load i8, ptr %38, align 1, !tbaa !13
  %40 = sext i8 %39 to i32
  %41 = icmp ne i32 %40, 32
  br i1 %41, label %42, label %43

42:                                               ; preds = %35
  store i32 0, ptr %3, align 4
  store i32 1, ptr %9, align 4
  br label %50

43:                                               ; preds = %35
  %44 = load ptr, ptr %8, align 8, !tbaa !3
  %45 = load ptr, ptr %4, align 8, !tbaa !3
  %46 = ptrtoint ptr %44 to i64
  %47 = ptrtoint ptr %45 to i64
  %48 = sub i64 %46, %47
  %49 = trunc i64 %48 to i32
  store i32 %49, ptr %3, align 4
  store i32 1, ptr %9, align 4
  br label %50

50:                                               ; preds = %43, %42, %34, %20
  call void @llvm.lifetime.end.p0(i64 8, ptr %8) #8
  call void @llvm.lifetime.end.p0(i64 4, ptr %7) #8
  call void @llvm.lifetime.end.p0(i64 4, ptr %6) #8
  %51 = load i32, ptr %3, align 4
  ret i32 %51
}