; Function Attrs: mustprogress nofree nounwind willreturn memory(argmem: read) uwtable
define noundef i32 @ossl_pem_check_suffix(ptr noundef %0, ptr noundef readonly captures(none) %1) local_unnamed_addr #6 {
  %3 = tail call i64 @strlen(ptr noundef nonnull dereferenceable(1) %0) #9
  %4 = trunc i64 %3 to i32
  %5 = tail call i64 @strlen(ptr noundef nonnull dereferenceable(1) %1) #9
  %6 = trunc i64 %5 to i32
  %7 = add nsw i32 %6, 1
  %.not = icmp slt i32 %7, %4
  br i1 %.not, label %8, label %23

8:                                                ; preds = %2
  %sext = shl i64 %3, 32
  %9 = ashr exact i64 %sext, 32
  %10 = getelementptr inbounds i8, ptr %0, i64 %9
  %sext14 = shl i64 %5, 32
  %11 = ashr exact i64 %sext14, 32
  %12 = sub nsw i64 0, %11
  %13 = getelementptr inbounds i8, ptr %10, i64 %12
  %14 = tail call i32 @strcmp(ptr noundef nonnull dereferenceable(1) %13, ptr noundef nonnull dereferenceable(1) %1) #9
  %.not15 = icmp eq i32 %14, 0
  br i1 %.not15, label %15, label %23

15:                                               ; preds = %8
  %16 = getelementptr inbounds i8, ptr %13, i64 -1
  %17 = load i8, ptr %16, align 1, !tbaa !3
  %.not16 = icmp eq i8 %17, 32
  br i1 %.not16, label %18, label %23

18:                                               ; preds = %15
  %19 = ptrtoint ptr %16 to i64
  %20 = ptrtoint ptr %0 to i64
  %21 = sub i64 %19, %20
  %22 = trunc i64 %21 to i32
  br label %23

23:                                               ; preds = %15, %8, %2, %18
  %.0 = phi i32 [ %22, %18 ], [ 0, %2 ], [ 0, %8 ], [ 0, %15 ]
  ret i32 %.0
}